#include <math.h>
#include <stdio.h>
#include <stdlib.h>
#include <string.h>

 
main()
{
int a,b,c;
scanf("%d",&a);


if ((12+a)%7==5)
printf("1\n");
if ((43+a)%7==5)
printf("2\n");
if ((71+a)%7==5)
printf("3\n");
if ((102+a)%7==5)
printf("4\n");
if ((132+a)%7==5)
printf("5\n");
if ((163+a)%7==5)
printf("6\n");
if ((193+a)%7==5)
printf("7\n");
if ((224+a)%7==5)
printf("8\n");
if ((255+a)%7==5)
printf("9\n");
if ((285+a)%7==5)
printf("10\n");
if ((316+a)%7==5)
printf("11\n");
if ((346+a)%7==5)
printf("12\n");


}
